target datalayout = "e-m:e-p270:32:32-p271:32:32-p272:64:64-i64:64-i128:128-f80:128-n8:16:32:64-S128"
target triple = "x86_64-pc-linux-gnu"

%"class.cv::Mat_" = type { %"class.cv::Mat" }
%"class.cv::Mat" = type { i32, i32, i32, i32, ptr, ptr, ptr, ptr, ptr, ptr, %"struct.cv::MatSize", %"struct.cv::MatStep" }
%"struct.cv::MatSize" = type { ptr }
%"struct.cv::MatStep" = type { ptr, [2 x i64] }
%"class.cv::Range" = type { i32, i32 }
%"class.cv::ParallelLoopBody" = type { ptr }
%"struct.cv::optflow::ForwardGradientBody" = type { %"class.cv::ParallelLoopBody", %"class.cv::Mat_", %"class.cv::Mat_", %"class.cv::Mat_" }

@_ZTVN2cv16ParallelLoopBodyE = available_externally unnamed_addr constant { [5 x ptr] } { [5 x ptr] [ptr null, ptr @_ZTIN2cv16ParallelLoopBodyE, ptr @_ZN2cv16ParallelLoopBodyD1Ev, ptr @_ZN2cv16ParallelLoopBodyD0Ev, ptr @__cxa_pure_virtual] }, align 8

; Function Attrs: inlinehint mustprogress nounwind uwtable
define linkonce_odr hidden void @_ZN2cv4Mat_IfEC2Ev(ptr noundef nonnull align 8 dereferenceable(96) %0) unnamed_addr #6 comdat align 2 {
  %2 = alloca ptr, align 8
  store ptr %0, ptr %2, align 8, !tbaa !86
  %3 = load ptr, ptr %2, align 8
  call void @_ZN2cv3MatC2Ev(ptr noundef nonnull align 8 dereferenceable(96) %3) #3
  %4 = getelementptr inbounds nuw %"class.cv::Mat", ptr %3, i32 0, i32 0
  %5 = load i32, ptr %4, align 8, !tbaa !66
  %6 = and i32 %5, -4096
  %7 = add nsw i32 %6, 5
  %8 = getelementptr inbounds nuw %"class.cv::Mat", ptr %3, i32 0, i32 0
  store i32 %7, ptr %8, align 8, !tbaa !66
  ret void
}

; Function Attrs: inlinehint mustprogress nounwind uwtable
define linkonce_odr hidden void @_ZN2cv16ParallelLoopBodyC2Ev(ptr noundef nonnull align 8 dereferenceable(8) %0) unnamed_addr #6 comdat align 2 {
  %2 = alloca ptr, align 8
  store ptr %0, ptr %2, align 8, !tbaa !191
  %3 = load ptr, ptr %2, align 8
  store ptr getelementptr inbounds inrange(-16, 24) ({ [5 x ptr] }, ptr @_ZTVN2cv16ParallelLoopBodyE, i32 0, i32 0, i32 2), ptr %3, align 8, !tbaa !8
  ret void
}

; Function Attrs: inlinehint mustprogress nounwind uwtable
define linkonce_odr hidden noundef nonnull align 4 dereferenceable(4) ptr @_ZN2cv4Mat_IfEclEii(ptr noundef nonnull align 8 dereferenceable(96) %0, i32 noundef %1, i32 noundef %2) #6 comdat align 2 {
  %4 = alloca ptr, align 8
  %5 = alloca i32, align 4
  %6 = alloca i32, align 4
  store ptr %0, ptr %4, align 8, !tbaa !86
  store i32 %1, ptr %5, align 4, !tbaa !55
  store i32 %2, ptr %6, align 4, !tbaa !55
  %7 = load ptr, ptr %4, align 8
  %8 = getelementptr inbounds nuw %"class.cv::Mat", ptr %7, i32 0, i32 4
  %9 = load ptr, ptr %8, align 8, !tbaa !112
  %10 = getelementptr inbounds nuw %"class.cv::Mat", ptr %7, i32 0, i32 11
  %11 = getelementptr inbounds nuw %"struct.cv::MatStep", ptr %10, i32 0, i32 0
  %12 = load ptr, ptr %11, align 8, !tbaa !113
  %13 = getelementptr inbounds i64, ptr %12, i64 0
  %14 = load i64, ptr %13, align 8, !tbaa !81
  %15 = load i32, ptr %5, align 4, !tbaa !55
  %16 = sext i32 %15 to i64
  %17 = mul i64 %14, %16
  %18 = getelementptr inbounds nuw i8, ptr %9, i64 %17
  %19 = load i32, ptr %6, align 4, !tbaa !55
  %20 = sext i32 %19 to i64
  %21 = getelementptr inbounds float, ptr %18, i64 %20
  ret ptr %21
}

; Function Attrs: inlinehint mustprogress nounwind uwtable
define linkonce_odr hidden noundef nonnull align 4 dereferenceable(4) ptr @_ZNK2cv4Mat_IfEclEii(ptr noundef nonnull align 8 dereferenceable(96) %0, i32 noundef %1, i32 noundef %2) #6 comdat align 2 {
  %4 = alloca ptr, align 8
  %5 = alloca i32, align 4
  %6 = alloca i32, align 4
  store ptr %0, ptr %4, align 8, !tbaa !86
  store i32 %1, ptr %5, align 4, !tbaa !55
  store i32 %2, ptr %6, align 4, !tbaa !55
  %7 = load ptr, ptr %4, align 8
  %8 = getelementptr inbounds nuw %"class.cv::Mat", ptr %7, i32 0, i32 4
  %9 = load ptr, ptr %8, align 8, !tbaa !112
  %10 = getelementptr inbounds nuw %"class.cv::Mat", ptr %7, i32 0, i32 11
  %11 = getelementptr inbounds nuw %"struct.cv::MatStep", ptr %10, i32 0, i32 0
  %12 = load ptr, ptr %11, align 8, !tbaa !113
  %13 = getelementptr inbounds i64, ptr %12, i64 0
  %14 = load i64, ptr %13, align 8, !tbaa !81
  %15 = load i32, ptr %5, align 4, !tbaa !55
  %16 = sext i32 %15 to i64
  %17 = mul i64 %14, %16
  %18 = getelementptr inbounds nuw i8, ptr %9, i64 %17
  %19 = load i32, ptr %6, align 4, !tbaa !55
  %20 = sext i32 %19 to i64
  %21 = getelementptr inbounds float, ptr %18, i64 %20
  ret ptr %21
}

; Function Attrs: inlinehint mustprogress nounwind uwtable
define linkonce_odr hidden void @_ZN2cv5RangeC2Eii(ptr noundef nonnull align 4 dereferenceable(8) %0, i32 noundef %1, i32 noundef %2) unnamed_addr #6 comdat align 2 {
  %4 = alloca ptr, align 8
  %5 = alloca i32, align 4
  %6 = alloca i32, align 4
  store ptr %0, ptr %4, align 8, !tbaa !103
  store i32 %1, ptr %5, align 4, !tbaa !55
  store i32 %2, ptr %6, align 4, !tbaa !55
  %7 = load ptr, ptr %4, align 8
  %8 = getelementptr inbounds nuw %"class.cv::Range", ptr %7, i32 0, i32 0
  %9 = load i32, ptr %5, align 4, !tbaa !55
  store i32 %9, ptr %8, align 4, !tbaa !105
  %10 = getelementptr inbounds nuw %"class.cv::Range", ptr %7, i32 0, i32 1
  %11 = load i32, ptr %6, align 4, !tbaa !55
  store i32 %11, ptr %10, align 4, !tbaa !107
  ret void
}

; Function Attrs: inlinehint mustprogress uwtable
define linkonce_odr hidden noundef nonnull align 8 dereferenceable(96) ptr @_ZN2cv4Mat_IfEaSERKS1_(ptr noundef nonnull align 8 dereferenceable(96) %0, ptr noundef nonnull align 8 dereferenceable(96) %1) #5 comdat align 2 {
  %3 = alloca ptr, align 8
  %4 = alloca ptr, align 8
  store ptr %0, ptr %3, align 8, !tbaa !86
  store ptr %1, ptr %4, align 8, !tbaa !86
  %5 = load ptr, ptr %3, align 8
  %6 = load ptr, ptr %4, align 8, !tbaa !86
  %7 = call noundef nonnull align 8 dereferenceable(96) ptr @_ZN2cv3MataSERKS0_(ptr noundef nonnull align 8 dereferenceable(96) %5, ptr noundef nonnull align 8 dereferenceable(96) %6)
  ret ptr %5
}

; Function Attrs: inlinehint mustprogress nounwind uwtable
define linkonce_odr hidden void @_ZN2cv7optflow19ForwardGradientBodyC2Ev(ptr noundef nonnull align 8 dereferenceable(296) %0) unnamed_addr #6 comdat align 2 {
  %2 = alloca ptr, align 8
  store ptr %0, ptr %2, align 8, !tbaa !118
  %3 = load ptr, ptr %2, align 8
  call void @_ZN2cv16ParallelLoopBodyC2Ev(ptr noundef nonnull align 8 dereferenceable(8) %3) #3
  store ptr getelementptr inbounds inrange(-16, 24) ({ [5 x ptr] }, ptr @_ZTVN2cv7optflow19ForwardGradientBodyE, i32 0, i32 0, i32 2), ptr %3, align 8, !tbaa !8
  %4 = getelementptr inbounds nuw %"struct.cv::optflow::ForwardGradientBody", ptr %3, i32 0, i32 1
  call void @_ZN2cv4Mat_IfEC2Ev(ptr noundef nonnull align 8 dereferenceable(96) %4) #3
  %5 = getelementptr inbounds nuw %"struct.cv::optflow::ForwardGradientBody", ptr %3, i32 0, i32 2
  call void @_ZN2cv4Mat_IfEC2Ev(ptr noundef nonnull align 8 dereferenceable(96) %5) #3
  %6 = getelementptr inbounds nuw %"struct.cv::optflow::ForwardGradientBody", ptr %3, i32 0, i32 3
  call void @_ZN2cv4Mat_IfEC2Ev(ptr noundef nonnull align 8 dereferenceable(96) %6) #3
  ret void
}

; Function Attrs: mustprogress uwtable
define internal void @_ZN2cv7optflowL15forwardGradientERKNS_4Mat_IfEERS2_S5_(ptr noundef nonnull align 8 dereferenceable(96) %0, ptr noundef nonnull align 8 dereferenceable(96) %1, ptr noundef nonnull align 8 dereferenceable(96) %2) #4 personality ptr @__gxx_personality_v0 {
  %4 = alloca ptr, align 8
  %5 = alloca ptr, align 8
  %6 = alloca ptr, align 8
  %7 = alloca i32, align 4
  %8 = alloca i32, align 4
  %9 = alloca %"struct.cv::optflow::ForwardGradientBody", align 8
  %10 = alloca ptr, align 8
  %11 = alloca i32, align 4
  %12 = alloca %"class.cv::Range", align 4
  %13 = alloca i32, align 4
  %14 = alloca i32, align 4
  store ptr %0, ptr %4, align 8, !tbaa !86
  store ptr %1, ptr %5, align 8, !tbaa !86
  store ptr %2, ptr %6, align 8, !tbaa !86
  call void @llvm.lifetime.start.p0(i64 4, ptr %7) #3
  %15 = load ptr, ptr %4, align 8, !tbaa !86
  %16 = getelementptr inbounds nuw %"class.cv::Mat", ptr %15, i32 0, i32 2
  %17 = load i32, ptr %16, align 8, !tbaa !57
  %18 = sub nsw i32 %17, 1
  store i32 %18, ptr %7, align 4, !tbaa !55
  call void @llvm.lifetime.start.p0(i64 4, ptr %8) #3
  %19 = load ptr, ptr %4, align 8, !tbaa !86
  %20 = getelementptr inbounds nuw %"class.cv::Mat", ptr %19, i32 0, i32 3
  %21 = load i32, ptr %20, align 4, !tbaa !56
  %22 = sub nsw i32 %21, 1
  store i32 %22, ptr %8, align 4, !tbaa !55
  call void @llvm.lifetime.start.p0(i64 296, ptr %9) #3
  call void @_ZN2cv7optflow19ForwardGradientBodyC2Ev(ptr noundef nonnull align 8 dereferenceable(296) %9) #3
  %23 = load ptr, ptr %4, align 8, !tbaa !86
  %24 = getelementptr inbounds nuw %"struct.cv::optflow::ForwardGradientBody", ptr %9, i32 0, i32 1
  %25 = invoke noundef nonnull align 8 dereferenceable(96) ptr @_ZN2cv4Mat_IfEaSERKS1_(ptr noundef nonnull align 8 dereferenceable(96) %24, ptr noundef nonnull align 8 dereferenceable(96) %23)
          to label %26 unwind label %43

26:                                               ; preds = %3
  %27 = load ptr, ptr %5, align 8, !tbaa !86
  %28 = getelementptr inbounds nuw %"struct.cv::optflow::ForwardGradientBody", ptr %9, i32 0, i32 2
  %29 = invoke noundef nonnull align 8 dereferenceable(96) ptr @_ZN2cv4Mat_IfEaSERKS1_(ptr noundef nonnull align 8 dereferenceable(96) %28, ptr noundef nonnull align 8 dereferenceable(96) %27)
          to label %30 unwind label %43

30:                                               ; preds = %26
  %31 = load ptr, ptr %6, align 8, !tbaa !86
  %32 = getelementptr inbounds nuw %"struct.cv::optflow::ForwardGradientBody", ptr %9, i32 0, i32 3
  %33 = invoke noundef nonnull align 8 dereferenceable(96) ptr @_ZN2cv4Mat_IfEaSERKS1_(ptr noundef nonnull align 8 dereferenceable(96) %32, ptr noundef nonnull align 8 dereferenceable(96) %31)
          to label %34 unwind label %43

34:                                               ; preds = %30
  call void @llvm.lifetime.start.p0(i64 8, ptr %12) #3
  %35 = load i32, ptr %7, align 4, !tbaa !55
  invoke void @_ZN2cv5RangeC2Eii(ptr noundef nonnull align 4 dereferenceable(8) %12, i32 noundef 0, i32 noundef %35)
          to label %36 unwind label %47

36:                                               ; preds = %34
  invoke void @_ZN2cv13parallel_for_ERKNS_5RangeERKNS_16ParallelLoopBodyEd(ptr noundef nonnull align 4 dereferenceable(8) %12, ptr noundef nonnull align 8 dereferenceable(8) %9, double noundef -1.000000e+00)
          to label %37 unwind label %47

37:                                               ; preds = %36
  call void @llvm.lifetime.end.p0(i64 8, ptr %12) #3
  call void @_ZN2cv7optflow19ForwardGradientBodyD2Ev(ptr noundef nonnull align 8 dereferenceable(296) %9) #3
  call void @llvm.lifetime.end.p0(i64 296, ptr %9) #3
  call void @llvm.lifetime.start.p0(i64 4, ptr %13) #3
  store i32 0, ptr %13, align 4, !tbaa !55
  br label %38

38:                                               ; preds = %73, %37
  %39 = load i32, ptr %13, align 4, !tbaa !55
  %40 = load i32, ptr %8, align 4, !tbaa !55
  %41 = icmp slt i32 %39, %40
  br i1 %41, label %52, label %42

42:                                               ; preds = %38
  call void @llvm.lifetime.end.p0(i64 4, ptr %13) #3
  br label %76

43:                                               ; preds = %30, %26, %3
  %44 = landingpad { ptr, i32 }
          cleanup
  %45 = extractvalue { ptr, i32 } %44, 0
  store ptr %45, ptr %10, align 8
  %46 = extractvalue { ptr, i32 } %44, 1
  store i32 %46, ptr %11, align 4
  br label %51

47:                                               ; preds = %36, %34
  %48 = landingpad { ptr, i32 }
          cleanup
  %49 = extractvalue { ptr, i32 } %48, 0
  store ptr %49, ptr %10, align 8
  %50 = extractvalue { ptr, i32 } %48, 1
  store i32 %50, ptr %11, align 4
  call void @llvm.lifetime.end.p0(i64 8, ptr %12) #3
  br label %51

51:                                               ; preds = %47, %43
  call void @_ZN2cv7optflow19ForwardGradientBodyD2Ev(ptr noundef nonnull align 8 dereferenceable(296) %9) #3
  call void @llvm.lifetime.end.p0(i64 296, ptr %9) #3
  call void @llvm.lifetime.end.p0(i64 4, ptr %8) #3
  call void @llvm.lifetime.end.p0(i64 4, ptr %7) #3
  br label %115

52:                                               ; preds = %38
  %53 = load ptr, ptr %4, align 8, !tbaa !86
  %54 = load i32, ptr %7, align 4, !tbaa !55
  %55 = load i32, ptr %13, align 4, !tbaa !55
  %56 = add nsw i32 %55, 1
  %57 = call noundef nonnull align 4 dereferenceable(4) ptr @_ZNK2cv4Mat_IfEclEii(ptr noundef nonnull align 8 dereferenceable(96) %53, i32 noundef %54, i32 noundef %56)
  %58 = load float, ptr %57, align 4, !tbaa !91
  %59 = load ptr, ptr %4, align 8, !tbaa !86
  %60 = load i32, ptr %7, align 4, !tbaa !55
  %61 = load i32, ptr %13, align 4, !tbaa !55
  %62 = call noundef nonnull align 4 dereferenceable(4) ptr @_ZNK2cv4Mat_IfEclEii(ptr noundef nonnull align 8 dereferenceable(96) %59, i32 noundef %60, i32 noundef %61)
  %63 = load float, ptr %62, align 4, !tbaa !91
  %64 = fsub float %58, %63
  %65 = load ptr, ptr %5, align 8, !tbaa !86
  %66 = load i32, ptr %7, align 4, !tbaa !55
  %67 = load i32, ptr %13, align 4, !tbaa !55
  %68 = call noundef nonnull align 4 dereferenceable(4) ptr @_ZN2cv4Mat_IfEclEii(ptr noundef nonnull align 8 dereferenceable(96) %65, i32 noundef %66, i32 noundef %67)
  store float %64, ptr %68, align 4, !tbaa !91
  %69 = load ptr, ptr %6, align 8, !tbaa !86
  %70 = load i32, ptr %7, align 4, !tbaa !55
  %71 = load i32, ptr %13, align 4, !tbaa !55
  %72 = call noundef nonnull align 4 dereferenceable(4) ptr @_ZN2cv4Mat_IfEclEii(ptr noundef nonnull align 8 dereferenceable(96) %69, i32 noundef %70, i32 noundef %71)
  store float 0.000000e+00, ptr %72, align 4, !tbaa !91
  br label %73

73:                                               ; preds = %52
  %74 = load i32, ptr %13, align 4, !tbaa !55
  %75 = add nsw i32 %74, 1
  store i32 %75, ptr %13, align 4, !tbaa !55
  br label %38, !llvm.loop !160

76:                                               ; preds = %42
  call void @llvm.lifetime.start.p0(i64 4, ptr %14) #3
  store i32 0, ptr %14, align 4, !tbaa !55
  br label %77

77:                                               ; preds = %103, %76
  %78 = load i32, ptr %14, align 4, !tbaa !55
  %79 = load i32, ptr %7, align 4, !tbaa !55
  %80 = icmp slt i32 %78, %79
  br i1 %80, label %82, label %81

81:                                               ; preds = %77
  call void @llvm.lifetime.end.p0(i64 4, ptr %14) #3
  br label %106

82:                                               ; preds = %77
  %83 = load ptr, ptr %5, align 8, !tbaa !86
  %84 = load i32, ptr %14, align 4, !tbaa !55
  %85 = load i32, ptr %8, align 4, !tbaa !55
  %86 = call noundef nonnull align 4 dereferenceable(4) ptr @_ZN2cv4Mat_IfEclEii(ptr noundef nonnull align 8 dereferenceable(96) %83, i32 noundef %84, i32 noundef %85)
  store float 0.000000e+00, ptr %86, align 4, !tbaa !91
  %87 = load ptr, ptr %4, align 8, !tbaa !86
  %88 = load i32, ptr %14, align 4, !tbaa !55
  %89 = add nsw i32 %88, 1
  %90 = load i32, ptr %8, align 4, !tbaa !55
  %91 = call noundef nonnull align 4 dereferenceable(4) ptr @_ZNK2cv4Mat_IfEclEii(ptr noundef nonnull align 8 dereferenceable(96) %87, i32 noundef %89, i32 noundef %90)
  %92 = load float, ptr %91, align 4, !tbaa !91
  %93 = load ptr, ptr %4, align 8, !tbaa !86
  %94 = load i32, ptr %14, align 4, !tbaa !55
  %95 = load i32, ptr %8, align 4, !tbaa !55
  %96 = call noundef nonnull align 4 dereferenceable(4) ptr @_ZNK2cv4Mat_IfEclEii(ptr noundef nonnull align 8 dereferenceable(96) %93, i32 noundef %94, i32 noundef %95)
  %97 = load float, ptr %96, align 4, !tbaa !91
  %98 = fsub float %92, %97
  %99 = load ptr, ptr %6, align 8, !tbaa !86
  %100 = load i32, ptr %14, align 4, !tbaa !55
  %101 = load i32, ptr %8, align 4, !tbaa !55
  %102 = call noundef nonnull align 4 dereferenceable(4) ptr @_ZN2cv4Mat_IfEclEii(ptr noundef nonnull align 8 dereferenceable(96) %99, i32 noundef %100, i32 noundef %101)
  store float %98, ptr %102, align 4, !tbaa !91
  br label %103

103:                                              ; preds = %82
  %104 = load i32, ptr %14, align 4, !tbaa !55
  %105 = add nsw i32 %104, 1
  store i32 %105, ptr %14, align 4, !tbaa !55
  br label %77, !llvm.loop !161

106:                                              ; preds = %81
  %107 = load ptr, ptr %5, align 8, !tbaa !86
  %108 = load i32, ptr %7, align 4, !tbaa !55
  %109 = load i32, ptr %8, align 4, !tbaa !55
  %110 = call noundef nonnull align 4 dereferenceable(4) ptr @_ZN2cv4Mat_IfEclEii(ptr noundef nonnull align 8 dereferenceable(96) %107, i32 noundef %108, i32 noundef %109)
  store float 0.000000e+00, ptr %110, align 4, !tbaa !91
  %111 = load ptr, ptr %6, align 8, !tbaa !86
  %112 = load i32, ptr %7, align 4, !tbaa !55
  %113 = load i32, ptr %8, align 4, !tbaa !55
  %114 = call noundef nonnull align 4 dereferenceable(4) ptr @_ZN2cv4Mat_IfEclEii(ptr noundef nonnull align 8 dereferenceable(96) %111, i32 noundef %112, i32 noundef %113)
  store float 0.000000e+00, ptr %114, align 4, !tbaa !91
  call void @llvm.lifetime.end.p0(i64 4, ptr %8) #3
  call void @llvm.lifetime.end.p0(i64 4, ptr %7) #3
  ret void

115:                                              ; preds = %51
  %116 = load ptr, ptr %10, align 8
  %117 = load i32, ptr %11, align 4
  %118 = insertvalue { ptr, i32 } poison, ptr %116, 0
  %119 = insertvalue { ptr, i32 } %118, i32 %117, 1
  resume { ptr, i32 } %119
}