; Function Attrs: mustprogress uwtable
define internal fastcc void @_ZN2cv7optflowL15forwardGradientERKNS_4Mat_IfEERS2_S5_(ptr noundef nonnull align 8 dereferenceable(96) %0, ptr noundef nonnull align 8 dereferenceable(96) %1, ptr noundef nonnull align 8 dereferenceable(96) %2) unnamed_addr #3 personality ptr @__gxx_personality_v0 {
  %4 = alloca %"struct.cv::optflow::ForwardGradientBody", align 8
  %5 = alloca %"class.cv::Range", align 4
  %6 = getelementptr inbounds nuw i8, ptr %0, i64 8
  %7 = load i32, ptr %6, align 8, !tbaa !72
  %8 = add i32 %7, -1
  %9 = getelementptr inbounds nuw i8, ptr %0, i64 12
  %10 = load i32, ptr %9, align 4, !tbaa !71
  %11 = add i32 %10, -1
  call void @llvm.lifetime.start.p0(i64 296, ptr nonnull %4) #22
  store ptr getelementptr inbounds nuw inrange(-16, 24) (i8, ptr @_ZTVN2cv7optflow19ForwardGradientBodyE, i64 16), ptr %4, align 8, !tbaa !3
  %12 = getelementptr inbounds nuw i8, ptr %4, i64 8
  call void @_ZN2cv3MatC2Ev(ptr noundef nonnull align 8 dereferenceable(96) %12) #22
  %13 = load i32, ptr %12, align 8, !tbaa !42
  %14 = and i32 %13, -4096
  %15 = or disjoint i32 %14, 5
  store i32 %15, ptr %12, align 8, !tbaa !42
  %16 = getelementptr inbounds nuw i8, ptr %4, i64 104
  call void @_ZN2cv3MatC2Ev(ptr noundef nonnull align 8 dereferenceable(96) %16) #22
  %17 = load i32, ptr %16, align 8, !tbaa !42
  %18 = and i32 %17, -4096
  %19 = or disjoint i32 %18, 5
  store i32 %19, ptr %16, align 8, !tbaa !42
  %20 = getelementptr inbounds nuw i8, ptr %4, i64 200
  call void @_ZN2cv3MatC2Ev(ptr noundef nonnull align 8 dereferenceable(96) %20) #22
  %21 = load i32, ptr %20, align 8, !tbaa !42
  %22 = and i32 %21, -4096
  %23 = or disjoint i32 %22, 5
  store i32 %23, ptr %20, align 8, !tbaa !42
  %24 = invoke noundef nonnull align 8 dereferenceable(96) ptr @_ZN2cv3MataSERKS0_(ptr noundef nonnull align 8 dereferenceable(96) %12, ptr noundef nonnull align 8 dereferenceable(96) %0)
          to label %_ZN2cv4Mat_IfEaSERKS1_.exit unwind label %69

_ZN2cv4Mat_IfEaSERKS1_.exit:                      ; preds = %3
  %25 = invoke noundef nonnull align 8 dereferenceable(96) ptr @_ZN2cv3MataSERKS0_(ptr noundef nonnull align 8 dereferenceable(96) %16, ptr noundef nonnull align 8 dereferenceable(96) %1)
          to label %_ZN2cv4Mat_IfEaSERKS1_.exit49 unwind label %69

_ZN2cv4Mat_IfEaSERKS1_.exit49:                    ; preds = %_ZN2cv4Mat_IfEaSERKS1_.exit
  %26 = invoke noundef nonnull align 8 dereferenceable(96) ptr @_ZN2cv3MataSERKS0_(ptr noundef nonnull align 8 dereferenceable(96) %20, ptr noundef nonnull align 8 dereferenceable(96) %2)
          to label %_ZN2cv4Mat_IfEaSERKS1_.exit50 unwind label %69

_ZN2cv4Mat_IfEaSERKS1_.exit50:                    ; preds = %_ZN2cv4Mat_IfEaSERKS1_.exit49
  call void @llvm.lifetime.start.p0(i64 8, ptr nonnull %5) #22
  store i32 0, ptr %5, align 4, !tbaa !95
  %27 = getelementptr inbounds nuw i8, ptr %5, i64 4
  store i32 %8, ptr %27, align 4, !tbaa !97
  invoke void @_ZN2cv13parallel_for_ERKNS_5RangeERKNS_16ParallelLoopBodyEd(ptr noundef nonnull align 4 dereferenceable(8) %5, ptr noundef nonnull align 8 dereferenceable(8) %4, double noundef -1.000000e+00)
          to label %28 unwind label %71

28:                                               ; preds = %_ZN2cv4Mat_IfEaSERKS1_.exit50
  call void @llvm.lifetime.end.p0(i64 8, ptr nonnull %5) #22
  store ptr getelementptr inbounds nuw inrange(-16, 24) (i8, ptr @_ZTVN2cv7optflow19ForwardGradientBodyE, i64 16), ptr %4, align 8, !tbaa !3
  call void @_ZN2cv3MatD2Ev(ptr noundef nonnull align 8 dereferenceable(96) %20) #22
  call void @_ZN2cv3MatD2Ev(ptr noundef nonnull align 8 dereferenceable(96) %16) #22
  call void @_ZN2cv3MatD2Ev(ptr noundef nonnull align 8 dereferenceable(96) %12) #22
  call void @_ZN2cv16ParallelLoopBodyD2Ev(ptr noundef nonnull align 8 dereferenceable(296) %4) #22
  call void @llvm.lifetime.end.p0(i64 296, ptr nonnull %4) #22
  %29 = icmp sgt i32 %10, 1
  br i1 %29, label %.lr.ph, label %.preheader

.lr.ph:                                           ; preds = %28
  %30 = getelementptr inbounds nuw i8, ptr %0, i64 16
  %31 = load ptr, ptr %30, align 8, !tbaa !98
  %32 = getelementptr inbounds nuw i8, ptr %0, i64 72
  %33 = load ptr, ptr %32, align 8, !tbaa !99
  %34 = load i64, ptr %33, align 8, !tbaa !100
  %35 = sext i32 %8 to i64
  %36 = mul i64 %34, %35
  %37 = getelementptr inbounds nuw i8, ptr %31, i64 %36
  %38 = getelementptr inbounds nuw i8, ptr %1, i64 16
  %39 = load ptr, ptr %38, align 8, !tbaa !98
  %40 = getelementptr inbounds nuw i8, ptr %1, i64 72
  %41 = load ptr, ptr %40, align 8, !tbaa !99
  %42 = load i64, ptr %41, align 8, !tbaa !100
  %43 = mul i64 %42, %35
  %44 = getelementptr inbounds nuw i8, ptr %39, i64 %43
  %45 = getelementptr inbounds nuw i8, ptr %2, i64 16
  %46 = load ptr, ptr %45, align 8, !tbaa !98
  %47 = getelementptr inbounds nuw i8, ptr %2, i64 72
  %48 = load ptr, ptr %47, align 8, !tbaa !99
  %49 = load i64, ptr %48, align 8, !tbaa !100
  %50 = mul i64 %49, %35
  %51 = getelementptr inbounds nuw i8, ptr %46, i64 %50
  %wide.trip.count = zext nneg i32 %11 to i64
  br label %74

.preheader:                                       ; preds = %74, %28
  %52 = icmp sgt i32 %7, 1
  %53 = getelementptr inbounds nuw i8, ptr %1, i64 16
  %54 = load ptr, ptr %53, align 8, !tbaa !98
  %55 = getelementptr inbounds nuw i8, ptr %1, i64 72
  %56 = load ptr, ptr %55, align 8, !tbaa !99
  %57 = load i64, ptr %56, align 8, !tbaa !100
  br i1 %52, label %.lr.ph53, label %.preheader.._crit_edge_crit_edge

.preheader.._crit_edge_crit_edge:                 ; preds = %.preheader
  %.phi.trans.insert69 = getelementptr inbounds nuw i8, ptr %2, i64 16
  %.pre70 = load ptr, ptr %.phi.trans.insert69, align 8, !tbaa !98
  %.phi.trans.insert71 = getelementptr inbounds nuw i8, ptr %2, i64 72
  %.pre72 = load ptr, ptr %.phi.trans.insert71, align 8, !tbaa !99
  %.pre73 = load i64, ptr %.pre72, align 8, !tbaa !100
  %.pre74 = sext i32 %11 to i64
  br label %._crit_edge

.lr.ph53:                                         ; preds = %.preheader
  %58 = sext i32 %11 to i64
  %invariant.gep = getelementptr float, ptr %54, i64 %58
  %59 = getelementptr inbounds nuw i8, ptr %0, i64 16
  %60 = load ptr, ptr %59, align 8, !tbaa !98
  %61 = getelementptr inbounds nuw i8, ptr %0, i64 72
  %62 = load ptr, ptr %61, align 8, !tbaa !99
  %63 = load i64, ptr %62, align 8, !tbaa !100
  %invariant.gep54 = getelementptr float, ptr %60, i64 %58
  %64 = getelementptr inbounds nuw i8, ptr %2, i64 16
  %65 = load ptr, ptr %64, align 8, !tbaa !98
  %66 = getelementptr inbounds nuw i8, ptr %2, i64 72
  %67 = load ptr, ptr %66, align 8, !tbaa !99
  %68 = load i64, ptr %67, align 8, !tbaa !100
  %invariant.gep58 = getelementptr float, ptr %65, i64 %58
  %wide.trip.count64 = zext nneg i32 %8 to i64
  br label %91

69:                                               ; preds = %_ZN2cv4Mat_IfEaSERKS1_.exit49, %_ZN2cv4Mat_IfEaSERKS1_.exit, %3
  %70 = landingpad { ptr, i32 }
          cleanup
  br label %73

71:                                               ; preds = %_ZN2cv4Mat_IfEaSERKS1_.exit50
  %72 = landingpad { ptr, i32 }
          cleanup
  call void @llvm.lifetime.end.p0(i64 8, ptr nonnull %5) #22
  br label %73

73:                                               ; preds = %71, %69
  %.pn = phi { ptr, i32 } [ %72, %71 ], [ %70, %69 ]
  call void @_ZN2cv7optflow19ForwardGradientBodyD2Ev(ptr noundef nonnull align 8 dereferenceable(296) %4) #22
  call void @llvm.lifetime.end.p0(i64 296, ptr nonnull %4) #22
  resume { ptr, i32 } %.pn

74:                                               ; preds = %.lr.ph, %74
  %indvars.iv = phi i64 [ 0, %.lr.ph ], [ %indvars.iv.next, %74 ]
  %indvars.iv.next = add nuw nsw i64 %indvars.iv, 1
  %75 = getelementptr inbounds nuw float, ptr %37, i64 %indvars.iv.next
  %76 = load float, ptr %75, align 4, !tbaa !101
  %77 = getelementptr inbounds nuw float, ptr %37, i64 %indvars.iv
  %78 = load float, ptr %77, align 4, !tbaa !101
  %79 = fsub float %76, %78
  %80 = getelementptr inbounds nuw float, ptr %44, i64 %indvars.iv
  store float %79, ptr %80, align 4, !tbaa !101
  %81 = getelementptr inbounds nuw float, ptr %51, i64 %indvars.iv
  store float 0.000000e+00, ptr %81, align 4, !tbaa !101
  %exitcond.not = icmp eq i64 %indvars.iv.next, %wide.trip.count
  br i1 %exitcond.not, label %.preheader, label %74, !llvm.loop !134

._crit_edge:                                      ; preds = %91, %.preheader.._crit_edge_crit_edge
  %.pre-phi = phi i64 [ %.pre74, %.preheader.._crit_edge_crit_edge ], [ %58, %91 ]
  %82 = phi i64 [ %.pre73, %.preheader.._crit_edge_crit_edge ], [ %68, %91 ]
  %83 = phi ptr [ %.pre70, %.preheader.._crit_edge_crit_edge ], [ %65, %91 ]
  %84 = sext i32 %8 to i64
  %85 = mul i64 %57, %84
  %86 = getelementptr inbounds nuw i8, ptr %54, i64 %85
  %87 = getelementptr inbounds float, ptr %86, i64 %.pre-phi
  store float 0.000000e+00, ptr %87, align 4, !tbaa !101
  %88 = mul i64 %82, %84
  %89 = getelementptr inbounds nuw i8, ptr %83, i64 %88
  %90 = getelementptr inbounds float, ptr %89, i64 %.pre-phi
  store float 0.000000e+00, ptr %90, align 4, !tbaa !101
  ret void

91:                                               ; preds = %.lr.ph53, %91
  %indvars.iv61 = phi i64 [ 0, %.lr.ph53 ], [ %indvars.iv.next62, %91 ]
  %92 = mul i64 %57, %indvars.iv61
  %gep = getelementptr i8, ptr %invariant.gep, i64 %92
  store float 0.000000e+00, ptr %gep, align 4, !tbaa !101
  %indvars.iv.next62 = add nuw nsw i64 %indvars.iv61, 1
  %93 = mul i64 %63, %indvars.iv.next62
  %gep55 = getelementptr i8, ptr %invariant.gep54, i64 %93
  %94 = load float, ptr %gep55, align 4, !tbaa !101
  %95 = mul i64 %63, %indvars.iv61
  %gep57 = getelementptr i8, ptr %invariant.gep54, i64 %95
  %96 = load float, ptr %gep57, align 4, !tbaa !101
  %97 = fsub float %94, %96
  %98 = mul i64 %68, %indvars.iv61
  %gep59 = getelementptr i8, ptr %invariant.gep58, i64 %98
  store float %97, ptr %gep59, align 4, !tbaa !101
  %exitcond65.not = icmp eq i64 %indvars.iv.next62, %wide.trip.count64
  br i1 %exitcond65.not, label %._crit_edge, label %91, !llvm.loop !135
}